; ModuleID = 'source-C-CXX/5/2371.cpp'
source_filename = "source-C-CXX/5/2371.cpp"
target datalayout = "e-m:e-p270:32:32-p271:32:32-p272:64:64-i64:64-f80:128-n8:16:32:64-S128"
target triple = "x86_64-pc-linux-gnu"

%"class.std::ios_base::Init" = type { i8 }
%"class.std::basic_istream" = type { i32 (...)**, i64, %"class.std::basic_ios" }
%"class.std::basic_ios" = type { %"class.std::ios_base", %"class.std::basic_ostream"*, i8, i8, %"class.std::basic_streambuf"*, %"class.std::ctype"*, %"class.std::num_put"*, %"class.std::num_get"* }
%"class.std::ios_base" = type { i32 (...)**, i64, i64, i32, i32, i32, %"struct.std::ios_base::_Callback_list"*, %"struct.std::ios_base::_Words", [8 x %"struct.std::ios_base::_Words"], i32, %"struct.std::ios_base::_Words"*, %"class.std::locale" }
%"struct.std::ios_base::_Callback_list" = type { %"struct.std::ios_base::_Callback_list"*, void (i32, %"class.std::ios_base"*, i32)*, i32, i32 }
%"struct.std::ios_base::_Words" = type { i8*, i64 }
%"class.std::locale" = type { %"class.std::locale::_Impl"* }
%"class.std::locale::_Impl" = type { i32, %"class.std::locale::facet"**, i64, %"class.std::locale::facet"**, i8** }
%"class.std::locale::facet" = type <{ i32 (...)**, i32, [4 x i8] }>
%"class.std::basic_ostream" = type { i32 (...)**, %"class.std::basic_ios" }
%"class.std::basic_streambuf" = type { i32 (...)**, i8*, i8*, i8*, i8*, i8*, i8*, %"class.std::locale" }
%"class.std::ctype" = type <{ %"class.std::locale::facet.base", [4 x i8], %struct.__locale_struct*, i8, [7 x i8], i32*, i32*, i16*, i8, [256 x i8], [256 x i8], i8, [6 x i8] }>
%"class.std::locale::facet.base" = type <{ i32 (...)**, i32 }>
%struct.__locale_struct = type { [13 x %struct.__locale_data*], i16*, i32*, i32*, [13 x i8*] }
%struct.__locale_data = type opaque
%"class.std::num_put" = type { %"class.std::locale::facet.base", [4 x i8] }
%"class.std::num_get" = type { %"class.std::locale::facet.base", [4 x i8] }

@_ZStL8__ioinit = internal global %"class.std::ios_base::Init" zeroinitializer, align 1
@__dso_handle = external hidden global i8
@_ZSt3cin = external global %"class.std::basic_istream", align 8
@_ZSt4cout = external global %"class.std::basic_ostream", align 8
@llvm.global_ctors = appending global [1 x { i32, void ()*, i8* }] [{ i32, void ()*, i8* } { i32 65535, void ()* @_GLOBAL__sub_I_2371.cpp, i8* null }]

declare void @_ZNSt8ios_base4InitC1Ev(%"class.std::ios_base::Init"* nonnull align 1 dereferenceable(1)) unnamed_addr #0

; Function Attrs: nounwind
declare void @_ZNSt8ios_base4InitD1Ev(%"class.std::ios_base::Init"* nonnull align 1 dereferenceable(1)) unnamed_addr #1

; Function Attrs: nofree nounwind
declare i32 @__cxa_atexit(void (i8*)*, i8*, i8*) local_unnamed_addr #2

; Function Attrs: mustprogress norecurse sspstrong uwtable
define dso_local i32 @main() local_unnamed_addr #3 {
  %1 = alloca i32, align 4
  %2 = alloca i32, align 4
  %3 = alloca i32, align 4
  %4 = alloca [100 x [100 x i32]], align 16
  %5 = bitcast i32* %1 to i8*
  call void @llvm.lifetime.start.p0i8(i64 4, i8* nonnull %5) #7
  %6 = bitcast i32* %2 to i8*
  call void @llvm.lifetime.start.p0i8(i64 4, i8* nonnull %6) #7
  %7 = bitcast i32* %3 to i8*
  call void @llvm.lifetime.start.p0i8(i64 4, i8* nonnull %7) #7
  %8 = bitcast [100 x [100 x i32]]* %4 to i8*
  call void @llvm.lifetime.start.p0i8(i64 40000, i8* nonnull %8) #7
  %9 = call nonnull align 8 dereferenceable(16) %"class.std::basic_istream"* @_ZNSirsERi(%"class.std::basic_istream"* nonnull align 8 dereferenceable(16) @_ZSt3cin, i32* nonnull align 4 dereferenceable(4) %1)
  %10 = load i32, i32* %1, align 4, !tbaa !5
  %11 = icmp slt i32 %10, 1
  br i1 %11, label %108, label %12

12:                                               ; preds = %0, %101
  %13 = phi i32 [ %105, %101 ], [ 1, %0 ]
  %14 = call nonnull align 8 dereferenceable(16) %"class.std::basic_istream"* @_ZNSirsERi(%"class.std::basic_istream"* nonnull align 8 dereferenceable(16) @_ZSt3cin, i32* nonnull align 4 dereferenceable(4) %2)
  %15 = call nonnull align 8 dereferenceable(16) %"class.std::basic_istream"* @_ZNSirsERi(%"class.std::basic_istream"* nonnull align 8 dereferenceable(16) %14, i32* nonnull align 4 dereferenceable(4) %3)
  %16 = load i32, i32* %2, align 4, !tbaa !5
  %17 = icmp sgt i32 %16, 0
  %18 = load i32, i32* %3, align 4
  %19 = icmp sgt i32 %18, 0
  %20 = select i1 %17, i1 %19, i1 false
  br i1 %20, label %21, label %73

21:                                               ; preds = %12, %66
  %22 = phi i32 [ %67, %66 ], [ %16, %12 ]
  %23 = phi i32 [ %68, %66 ], [ %18, %12 ]
  %24 = phi i64 [ %70, %66 ], [ 0, %12 ]
  %25 = phi i32 [ %69, %66 ], [ 0, %12 ]
  %26 = icmp sgt i32 %23, 0
  br i1 %26, label %27, label %66

27:                                               ; preds = %21
  %28 = icmp eq i64 %24, 0
  br i1 %28, label %29, label %40

29:                                               ; preds = %27, %29
  %30 = phi i64 [ %36, %29 ], [ 0, %27 ]
  %31 = phi i32 [ %35, %29 ], [ %25, %27 ]
  %32 = getelementptr inbounds [100 x [100 x i32]], [100 x [100 x i32]]* %4, i64 0, i64 0, i64 %30
  %33 = call nonnull align 8 dereferenceable(16) %"class.std::basic_istream"* @_ZNSirsERi(%"class.std::basic_istream"* nonnull align 8 dereferenceable(16) @_ZSt3cin, i32* nonnull align 4 dereferenceable(4) %32)
  %34 = load i32, i32* %32, align 4, !tbaa !5
  %35 = add nsw i32 %34, %31
  %36 = add nuw nsw i64 %30, 1
  %37 = load i32, i32* %3, align 4, !tbaa !5
  %38 = sext i32 %37 to i64
  %39 = icmp slt i64 %36, %38
  br i1 %39, label %29, label %64, !llvm.loop !9

40:                                               ; preds = %27, %59
  %41 = phi i64 [ %61, %59 ], [ 0, %27 ]
  %42 = phi i32 [ %60, %59 ], [ %25, %27 ]
  %43 = getelementptr inbounds [100 x [100 x i32]], [100 x [100 x i32]]* %4, i64 0, i64 %24, i64 %41
  %44 = call nonnull align 8 dereferenceable(16) %"class.std::basic_istream"* @_ZNSirsERi(%"class.std::basic_istream"* nonnull align 8 dereferenceable(16) @_ZSt3cin, i32* nonnull align 4 dereferenceable(4) %43)
  %45 = load i32, i32* %2, align 4, !tbaa !5
  %46 = add nsw i32 %45, -1
  %47 = zext i32 %46 to i64
  %48 = icmp ne i64 %24, %47
  %49 = icmp ne i64 %41, 0
  %50 = select i1 %48, i1 %49, i1 false
  %51 = load i32, i32* %3, align 4, !tbaa !5
  br i1 %50, label %52, label %56

52:                                               ; preds = %40
  %53 = add nsw i32 %51, -1
  %54 = zext i32 %53 to i64
  %55 = icmp eq i64 %41, %54
  br i1 %55, label %56, label %59

56:                                               ; preds = %40, %52
  %57 = load i32, i32* %43, align 4, !tbaa !5
  %58 = add nsw i32 %57, %42
  br label %59

59:                                               ; preds = %52, %56
  %60 = phi i32 [ %58, %56 ], [ %42, %52 ]
  %61 = add nuw nsw i64 %41, 1
  %62 = sext i32 %51 to i64
  %63 = icmp slt i64 %61, %62
  br i1 %63, label %40, label %66, !llvm.loop !9

64:                                               ; preds = %29
  %65 = load i32, i32* %2, align 4, !tbaa !5
  br label %66

66:                                               ; preds = %59, %64, %21
  %67 = phi i32 [ %22, %21 ], [ %65, %64 ], [ %45, %59 ]
  %68 = phi i32 [ %23, %21 ], [ %37, %64 ], [ %51, %59 ]
  %69 = phi i32 [ %25, %21 ], [ %35, %64 ], [ %60, %59 ]
  %70 = add nuw nsw i64 %24, 1
  %71 = sext i32 %67 to i64
  %72 = icmp slt i64 %70, %71
  br i1 %72, label %21, label %73, !llvm.loop !11

73:                                               ; preds = %66, %12
  %74 = phi i32 [ 0, %12 ], [ %69, %66 ]
  %75 = call nonnull align 8 dereferenceable(8) %"class.std::basic_ostream"* @_ZNSolsEi(%"class.std::basic_ostream"* nonnull align 8 dereferenceable(8) @_ZSt4cout, i32 %74)
  %76 = bitcast %"class.std::basic_ostream"* %75 to i8**
  %77 = load i8*, i8** %76, align 8, !tbaa !13
  %78 = getelementptr i8, i8* %77, i64 -24
  %79 = bitcast i8* %78 to i64*
  %80 = load i64, i64* %79, align 8
  %81 = bitcast %"class.std::basic_ostream"* %75 to i8*
  %82 = add nsw i64 %80, 240
  %83 = getelementptr inbounds i8, i8* %81, i64 %82
  %84 = bitcast i8* %83 to %"class.std::ctype"**
  %85 = load %"class.std::ctype"*, %"class.std::ctype"** %84, align 8, !tbaa !15
  %86 = icmp eq %"class.std::ctype"* %85, null
  br i1 %86, label %87, label %88

87:                                               ; preds = %73
  call void @_ZSt16__throw_bad_castv() #8
  unreachable

88:                                               ; preds = %73
  %89 = getelementptr inbounds %"class.std::ctype", %"class.std::ctype"* %85, i64 0, i32 8
  %90 = load i8, i8* %89, align 8, !tbaa !19
  %91 = icmp eq i8 %90, 0
  br i1 %91, label %95, label %92

92:                                               ; preds = %88
  %93 = getelementptr inbounds %"class.std::ctype", %"class.std::ctype"* %85, i64 0, i32 9, i64 10
  %94 = load i8, i8* %93, align 1, !tbaa !21
  br label %101

95:                                               ; preds = %88
  call void @_ZNKSt5ctypeIcE13_M_widen_initEv(%"class.std::ctype"* nonnull align 8 dereferenceable(570) %85)
  %96 = bitcast %"class.std::ctype"* %85 to i8 (%"class.std::ctype"*, i8)***
  %97 = load i8 (%"class.std::ctype"*, i8)**, i8 (%"class.std::ctype"*, i8)*** %96, align 8, !tbaa !13
  %98 = getelementptr inbounds i8 (%"class.std::ctype"*, i8)*, i8 (%"class.std::ctype"*, i8)** %97, i64 6
  %99 = load i8 (%"class.std::ctype"*, i8)*, i8 (%"class.std::ctype"*, i8)** %98, align 8
  %100 = call signext i8 %99(%"class.std::ctype"* nonnull align 8 dereferenceable(570) %85, i8 signext 10)
  br label %101

101:                                              ; preds = %92, %95
  %102 = phi i8 [ %94, %92 ], [ %100, %95 ]
  %103 = call nonnull align 8 dereferenceable(8) %"class.std::basic_ostream"* @_ZNSo3putEc(%"class.std::basic_ostream"* nonnull align 8 dereferenceable(8) %75, i8 signext %102)
  %104 = call nonnull align 8 dereferenceable(8) %"class.std::basic_ostream"* @_ZNSo5flushEv(%"class.std::basic_ostream"* nonnull align 8 dereferenceable(8) %103)
  %105 = add nuw nsw i32 %13, 1
  %106 = load i32, i32* %1, align 4, !tbaa !5
  %107 = icmp slt i32 %13, %106
  br i1 %107, label %12, label %108, !llvm.loop !22

108:                                              ; preds = %101, %0
  call void @llvm.lifetime.end.p0i8(i64 40000, i8* nonnull %8) #7
  call void @llvm.lifetime.end.p0i8(i64 4, i8* nonnull %7) #7
  call void @llvm.lifetime.end.p0i8(i64 4, i8* nonnull %6) #7
  call void @llvm.lifetime.end.p0i8(i64 4, i8* nonnull %5) #7
  ret i32 0
}

; Function Attrs: argmemonly mustprogress nofree nosync nounwind willreturn
declare void @llvm.lifetime.start.p0i8(i64 immarg, i8* nocapture) #4

declare nonnull align 8 dereferenceable(16) %"class.std::basic_istream"* @_ZNSirsERi(%"class.std::basic_istream"* nonnull align 8 dereferenceable(16), i32* nonnull align 4 dereferenceable(4)) local_unnamed_addr #0

declare nonnull align 8 dereferenceable(8) %"class.std::basic_ostream"* @_ZNSolsEi(%"class.std::basic_ostream"* nonnull align 8 dereferenceable(8), i32) local_unnamed_addr #0

; Function Attrs: argmemonly mustprogress nofree nosync nounwind willreturn
declare void @llvm.lifetime.end.p0i8(i64 immarg, i8* nocapture) #4

declare nonnull align 8 dereferenceable(8) %"class.std::basic_ostream"* @_ZNSo3putEc(%"class.std::basic_ostream"* nonnull align 8 dereferenceable(8), i8 signext) local_unnamed_addr #0

declare nonnull align 8 dereferenceable(8) %"class.std::basic_ostream"* @_ZNSo5flushEv(%"class.std::basic_ostream"* nonnull align 8 dereferenceable(8)) local_unnamed_addr #0

; Function Attrs: noreturn
declare void @_ZSt16__throw_bad_castv() local_unnamed_addr #5

declare void @_ZNKSt5ctypeIcE13_M_widen_initEv(%"class.std::ctype"* nonnull align 8 dereferenceable(570)) local_unnamed_addr #0

; Function Attrs: sspstrong uwtable
define internal void @_GLOBAL__sub_I_2371.cpp() #6 section ".text.startup" {
  tail call void @_ZNSt8ios_base4InitC1Ev(%"class.std::ios_base::Init"* nonnull align 1 dereferenceable(1) @_ZStL8__ioinit)
  %1 = tail call i32 @__cxa_atexit(void (i8*)* bitcast (void (%"class.std::ios_base::Init"*)* @_ZNSt8ios_base4InitD1Ev to void (i8*)*), i8* getelementptr inbounds (%"class.std::ios_base::Init", %"class.std::ios_base::Init"* @_ZStL8__ioinit, i64 0, i32 0), i8* nonnull @__dso_handle) #7
  ret void
}


!llvm.module.flags = !{!0, !1, !2, !3}
!llvm.ident = !{!4}

!0 = !{i32 1, !"wchar_size", i32 4}
!1 = !{i32 7, !"PIC Level", i32 2}
!2 = !{i32 7, !"PIE Level", i32 2}
!3 = !{i32 7, !"uwtable", i32 1}
!4 = !{!"clang version 13.0.0"}
!5 = !{!6, !6, i64 0}
!6 = !{!"int", !7, i64 0}
!7 = !{!"omnipotent char", !8, i64 0}
!8 = !{!"Simple C++ TBAA"}
!9 = distinct !{!9, !10}
!10 = !{!"llvm.loop.mustprogress"}
!11 = distinct !{!11, !10, !12}
!12 = !{!"llvm.loop.unswitch.partial.disable"}
!13 = !{!14, !14, i64 0}
!14 = !{!"vtable pointer", !8, i64 0}
!15 = !{!16, !17, i64 240}
!16 = !{!"_ZTSSt9basic_iosIcSt11char_traitsIcEE", !17, i64 216, !7, i64 224, !18, i64 225, !17, i64 232, !17, i64 240, !17, i64 248, !17, i64 256}
!17 = !{!"any pointer", !7, i64 0}
!18 = !{!"bool", !7, i64 0}
!19 = !{!20, !7, i64 56}
!20 = !{!"_ZTSSt5ctypeIcE", !17, i64 16, !18, i64 24, !17, i64 32, !17, i64 40, !17, i64 48, !7, i64 56, !7, i64 57, !7, i64 313, !7, i64 569}
!21 = !{!7, !7, i64 0}
!22 = distinct !{!22, !10}
